target datalayout = "e-m:e-p270:32:32-p271:32:32-p272:64:64-i64:64-i128:128-f80:128-n8:16:32:64-S128"
target triple = "x86_64-pc-linux-gnu"

%struct.ARKodeMemRec = type { ptr, double, ptr, i32, i32, double, double, ptr, i32, double, ptr, i32, i32, ptr, ptr, i32, ptr, ptr, i32, ptr, ptr, ptr, ptr, ptr, ptr, ptr, ptr, ptr, ptr, ptr, ptr, ptr, ptr, ptr, i32, ptr, ptr, i32, ptr, i32, ptr, ptr, ptr, ptr, ptr, ptr, ptr, ptr, ptr, ptr, ptr, ptr, ptr, ptr, ptr, ptr, ptr, ptr, ptr, ptr, ptr, ptr, ptr, ptr, ptr, ptr, i32, ptr, ptr, ptr, ptr, ptr, ptr, ptr, i32, ptr, ptr, ptr, i32, ptr, ptr, ptr, ptr, ptr, ptr, ptr, i32, i32, i32, i32, double, double, double, double, double, double, double, double, double, double, i32, ptr, i64, i32, i32, i32, i32, i64, i64, i32, i64, i64, i64, i64, i64, i64, i64, double, double, double, double, double, i32, double, double, i32, i32, i32, i32, i32, i32, i32, i32, ptr, i32, ptr, ptr, ptr, ptr, i32, i32, i32 }

; Function Attrs: nounwind uwtable
define i32 @mriStep_Hin(ptr noundef %0, double noundef %1, double noundef %2, ptr noundef %3, ptr noundef %4) #0 {
  %6 = alloca i32, align 4
  %7 = alloca ptr, align 8
  %8 = alloca double, align 8
  %9 = alloca double, align 8
  %10 = alloca ptr, align 8
  %11 = alloca ptr, align 8
  %12 = alloca i32, align 4
  %13 = alloca double, align 8
  %14 = alloca double, align 8
  %15 = alloca double, align 8
  %16 = alloca double, align 8
  %17 = alloca double, align 8
  %18 = alloca i32, align 4
  store ptr %0, ptr %7, align 8, !tbaa !17
  store double %1, ptr %8, align 8, !tbaa !7
  store double %2, ptr %9, align 8, !tbaa !7
  store ptr %3, ptr %10, align 8, !tbaa !9
  store ptr %4, ptr %11, align 8, !tbaa !125
  call void @llvm.lifetime.start.p0(i64 4, ptr %12) #8
  call void @llvm.lifetime.start.p0(i64 8, ptr %13) #8
  call void @llvm.lifetime.start.p0(i64 8, ptr %14) #8
  call void @llvm.lifetime.start.p0(i64 8, ptr %15) #8
  call void @llvm.lifetime.start.p0(i64 8, ptr %16) #8
  call void @llvm.lifetime.start.p0(i64 8, ptr %17) #8
  %19 = load double, ptr %9, align 8, !tbaa !7
  %20 = load double, ptr %8, align 8, !tbaa !7
  %21 = fsub double %19, %20
  store double %21, ptr %13, align 8, !tbaa !7
  %22 = fcmp oeq double %21, 0.000000e+00
  br i1 %22, label %23, label %24

23:                                               ; preds = %5
  store i32 -27, ptr %6, align 4
  store i32 1, ptr %18, align 4
  br label %75

24:                                               ; preds = %5
  %25 = load double, ptr %13, align 8, !tbaa !7
  %26 = fcmp ogt double %25, 0.000000e+00
  %27 = select i1 %26, i32 1, i32 -1
  store i32 %27, ptr %12, align 4, !tbaa !15
  %28 = load double, ptr %13, align 8, !tbaa !7
  %29 = call double @llvm.fabs.f64(double %28)
  store double %29, ptr %14, align 8, !tbaa !7
  %30 = load ptr, ptr %7, align 8, !tbaa !17
  %31 = getelementptr inbounds nuw %struct.ARKodeMemRec, ptr %30, i32 0, i32 1
  %32 = load double, ptr %31, align 8, !tbaa !243
  %33 = load double, ptr %8, align 8, !tbaa !7
  %34 = call double @llvm.fabs.f64(double %33)
  %35 = load double, ptr %9, align 8, !tbaa !7
  %36 = call double @llvm.fabs.f64(double %35)
  %37 = fcmp ogt double %34, %36
  br i1 %37, label %38, label %41

38:                                               ; preds = %24
  %39 = load double, ptr %8, align 8, !tbaa !7
  %40 = call double @llvm.fabs.f64(double %39)
  br label %44

41:                                               ; preds = %24
  %42 = load double, ptr %9, align 8, !tbaa !7
  %43 = call double @llvm.fabs.f64(double %42)
  br label %44

44:                                               ; preds = %41, %38
  %45 = phi double [ %40, %38 ], [ %43, %41 ]
  %46 = fmul double %32, %45
  store double %46, ptr %15, align 8, !tbaa !7
  %47 = load double, ptr %14, align 8, !tbaa !7
  %48 = load double, ptr %15, align 8, !tbaa !7
  %49 = fmul double 2.000000e+00, %48
  %50 = fcmp olt double %47, %49
  br i1 %50, label %51, label %52

51:                                               ; preds = %44
  store i32 -27, ptr %6, align 4
  store i32 1, ptr %18, align 4
  br label %75

52:                                               ; preds = %44
  %53 = load ptr, ptr %10, align 8, !tbaa !9
  %54 = load ptr, ptr %7, align 8, !tbaa !17
  %55 = getelementptr inbounds nuw %struct.ARKodeMemRec, ptr %54, i32 0, i32 72
  %56 = load ptr, ptr %55, align 8, !tbaa !163
  %57 = call double @N_VWrmsNorm(ptr noundef %53, ptr noundef %56)
  %58 = fdiv double %57, 5.000000e-01
  store double %58, ptr %16, align 8, !tbaa !7
  %59 = load double, ptr %14, align 8, !tbaa !7
  %60 = fdiv double 1.000000e+01, %59
  %61 = load double, ptr %16, align 8, !tbaa !7
  %62 = fcmp ogt double %60, %61
  br i1 %62, label %63, label %66

63:                                               ; preds = %52
  %64 = load double, ptr %14, align 8, !tbaa !7
  %65 = fdiv double 1.000000e+01, %64
  br label %68

66:                                               ; preds = %52
  %67 = load double, ptr %16, align 8, !tbaa !7
  br label %68

68:                                               ; preds = %66, %63
  %69 = phi double [ %65, %63 ], [ %67, %66 ]
  store double %69, ptr %17, align 8, !tbaa !7
  %70 = load i32, ptr %12, align 4, !tbaa !15
  %71 = sitofp i32 %70 to double
  %72 = load double, ptr %17, align 8, !tbaa !7
  %73 = fdiv double %71, %72
  %74 = load ptr, ptr %11, align 8, !tbaa !125
  store double %73, ptr %74, align 8, !tbaa !7
  store i32 0, ptr %6, align 4
  store i32 1, ptr %18, align 4
  br label %75

75:                                               ; preds = %68, %51, %23
  call void @llvm.lifetime.end.p0(i64 8, ptr %17) #8
  call void @llvm.lifetime.end.p0(i64 8, ptr %16) #8
  call void @llvm.lifetime.end.p0(i64 8, ptr %15) #8
  call void @llvm.lifetime.end.p0(i64 8, ptr %14) #8
  call void @llvm.lifetime.end.p0(i64 8, ptr %13) #8
  call void @llvm.lifetime.end.p0(i64 4, ptr %12) #8
  %76 = load i32, ptr %6, align 4
  ret i32 %76
}