; Function Attrs: nounwind uwtable
define range(i32 -27, 1) i32 @mriStep_Hin(ptr noundef readonly captures(none) %0, double noundef %1, double noundef %2, ptr noundef %3, ptr noundef writeonly captures(none) %4) local_unnamed_addr #0 {
  %6 = fsub double %2, %1
  %7 = fcmp oeq double %6, 0.000000e+00
  br i1 %7, label %29, label %8

8:                                                ; preds = %5
  %9 = tail call double @llvm.fabs.f64(double %6)
  %10 = getelementptr inbounds nuw i8, ptr %0, i64 8
  %11 = load double, ptr %10, align 8, !tbaa !230
  %12 = tail call double @llvm.fabs.f64(double %1)
  %13 = tail call double @llvm.fabs.f64(double %2)
  %14 = fcmp ogt double %12, %13
  %. = select i1 %14, double %12, double %13
  %15 = fmul double %., %11
  %16 = fmul double %15, 2.000000e+00
  %17 = fcmp olt double %9, %16
  br i1 %17, label %29, label %18

18:                                               ; preds = %8
  %19 = fcmp ogt double %6, 0.000000e+00
  %20 = getelementptr inbounds nuw i8, ptr %0, i64 560
  %21 = load ptr, ptr %20, align 8, !tbaa !152
  %22 = tail call double @N_VWrmsNorm(ptr noundef %3, ptr noundef %21) #14
  %23 = fmul double %22, 2.000000e+00
  %24 = fdiv double 1.000000e+01, %9
  %25 = fcmp ogt double %24, %23
  %26 = select i1 %25, double %24, double %23
  %27 = select i1 %19, double 1.000000e+00, double -1.000000e+00
  %28 = fdiv double %27, %26
  store double %28, ptr %4, align 8, !tbaa !115
  br label %29

29:                                               ; preds = %8, %5, %18
  %.0 = phi i32 [ 0, %18 ], [ -27, %5 ], [ -27, %8 ]
  ret i32 %.0
}